; Function Attrs: mustprogress nofree norecurse nosync nounwind willreturn memory(read, inaccessiblemem: none) uwtable
define dso_local { <2 x float>, <2 x float> } @_ZNK45btReducedDeformableNodeRigidContactConstraint10getSplitVbEv(ptr nocapture noundef nonnull readonly align 8 dereferenceable(448) %this) unnamed_addr #9 align 2 {
entry:
  %m_node = getelementptr inbounds i8, ptr %this, i64 440
  %0 = load ptr, ptr %m_node, align 8
  %m_splitv = getelementptr inbounds i8, ptr %0, i64 140
  %retval.sroa.0.0.copyload = load <2 x float>, ptr %m_splitv, align 4
  %retval.sroa.2.0.m_splitv.sroa_idx = getelementptr inbounds i8, ptr %0, i64 148
  %retval.sroa.2.0.copyload = load <2 x float>, ptr %retval.sroa.2.0.m_splitv.sroa_idx, align 4
  %.fca.0.insert = insertvalue { <2 x float>, <2 x float> } poison, <2 x float> %retval.sroa.0.0.copyload, 0
  %.fca.1.insert = insertvalue { <2 x float>, <2 x float> } %.fca.0.insert, <2 x float> %retval.sroa.2.0.copyload, 1
  ret { <2 x float>, <2 x float> } %.fca.1.insert
}